Certificate:
    Data:
        Version: 3 (0x2)
        Serial Number: 1 (0x1)
    Signature Algorithm: sha1WithRSAEncryption
        Issuer: C=CN, ST=GuangDong, L=ShenZhen, O=AK, OU=AK, CN=10.0.136.75/emailAddress=huangyang@akulaku.com
        Validity
            Not Before: Aug 11 07:35:17 2020 GMT
            Not After : Aug 11 07:35:17 2021 GMT
        Subject: C=CN, ST=GuangDong, O=AK, OU=AK, CN=10.0.136.75/emailAddress=huangyang@akulaku.com
        Subject Public Key Info:
            Public Key Algorithm: rsaEncryption
                Public-Key: (4096 bit)
                Modulus:
                    00:c2:16:8a:e9:87:da:c7:1a:24:99:5b:e1:44:ad:
                    38:9a:9a:12:54:94:e1:a4:f0:f5:fe:08:bd:a1:45:
                    6b:ac:32:b4:42:b2:49:11:eb:70:7c:c9:e7:92:da:
                    a0:3a:5a:bb:b0:74:ae:8f:bb:67:7e:d5:87:9d:1d:
                    bc:5a:82:c0:ef:b4:6c:d9:ae:81:9e:b0:3f:8c:e5:
                    2a:fd:76:ae:bc:69:5e:6a:e8:17:cb:39:79:b5:6d:
                    23:f7:40:58:d2:0f:d6:4d:23:e6:d5:9b:14:b5:46:
                    28:37:ad:61:f8:bf:26:20:e3:78:21:1a:fd:e9:7b:
                    fa:b0:a6:e7:ab:dd:91:0c:bd:3e:14:64:4e:f7:72:
                    f9:09:bf:9f:b3:06:b4:29:d8:46:49:d1:39:99:7c:
                    6b:5d:b4:fc:dc:20:0f:bd:52:1a:08:d7:8b:94:c8:
                    8e:88:a3:b6:df:18:6a:29:be:1a:31:e0:4e:dd:d5:
                    bc:4f:a8:6a:87:ac:43:47:85:b8:70:e0:a5:86:4d:
                    65:ca:85:92:41:07:cd:ef:51:eb:d5:54:2e:79:a4:
                    4e:9f:a4:3c:e6:8a:cf:e5:4c:71:27:a4:d9:4f:85:
                    5b:1c:55:74:0d:e1:06:45:cd:f2:5f:79:fe:2a:73:
                    fd:5f:1d:1e:a4:05:eb:7c:08:2c:5d:67:c2:87:97:
                    dc:f5:e2:27:03:2a:04:b0:36:92:51:7f:9f:ac:08:
                    d2:99:46:ae:ba:0d:f1:37:41:20:cc:89:02:9e:27:
                    fa:12:31:fc:aa:62:fc:53:24:2b:a8:d0:d6:6f:72:
                    fa:31:45:21:b6:50:ab:de:93:31:a7:12:34:73:c8:
                    b5:4f:63:01:3d:7d:d4:5e:1d:08:5a:f5:0f:e1:9f:
                    88:7b:30:6e:a0:b2:a8:e0:b9:57:d7:cc:d2:d3:c4:
                    c3:29:cd:dd:53:a6:24:bb:a1:7b:32:b7:99:bd:99:
                    b1:a3:97:82:87:08:8e:09:bb:71:71:57:a2:1b:a3:
                    d0:c5:d6:8e:13:67:b7:12:f8:df:d2:45:bc:47:fc:
                    9e:6e:b9:94:65:f0:ee:50:29:21:df:6c:98:ab:d1:
                    d1:0d:66:41:60:14:27:f4:8b:d2:cd:2c:0e:a0:c5:
                    65:65:26:5b:18:41:6a:46:cf:f5:da:7b:f2:a6:a2:
                    73:99:83:19:a1:af:4a:3f:d4:68:50:0f:11:1b:0d:
                    9a:1d:ac:55:57:fa:f6:da:63:61:f1:bf:d0:24:72:
                    64:f9:35:34:a6:bf:b1:2c:79:3f:78:45:ea:11:51:
                    d3:b1:0e:4f:82:cc:40:92:d8:d6:a5:4b:e5:e1:ef:
                    c5:8b:d0:4c:3a:68:a0:f6:3d:a4:21:ad:3d:38:74:
                    b8:8f:d1
                Exponent: 65537 (0x10001)
        X509v3 extensions:
            X509v3 Basic Constraints: 
                CA:FALSE
            Netscape Comment: 
                OpenSSL Generated Certificate
            X509v3 Subject Key Identifier: 
                90:E2:7E:07:61:A4:5E:1C:F3:BC:C0:5F:77:AA:AB:C7:77:D2:01:85
            X509v3 Authority Key Identifier: 
                DirName:/C=CN/ST=GuangDong/L=ShenZhen/O=AK/OU=AK/CN=10.0.136.75/emailAddress=huangyang@akulaku.com
                serial:88:79:05:D7:8E:36:9C:7E

    Signature Algorithm: sha1WithRSAEncryption
         36:61:7f:a1:e0:05:d2:c7:5e:0a:06:25:c9:26:5c:5a:6e:11:
         9f:d2:7f:c4:64:7e:a8:cc:a8:57:1c:f9:64:ac:a8:38:8e:99:
         69:55:aa:b4:bb:f1:fd:54:00:30:fa:c4:bf:48:47:c4:40:a5:
         68:99:22:f1:74:a4:26:28:20:cb:22:ae:35:5c:ce:45:2b:73:
         b0:89:82:61:38:11:b6:65:3d:95:74:a2:c0:67:9f:42:c0:ba:
         60:c9:7e:44:2d:d6:bc:f0:2f:15:56:87:2a:b5:18:6f:65:b1:
         65:df:6a:70:c7:44:ef:fe:51:e5:57:62:77:68:de:7b:2b:7d:
         18:80:35:3a:16:5b:46:97:1c:90:33:90:05:fb:c4:0a:7e:f6:
         6a:67:69:28:8d:4c:8a:96:c5:3e:f6:f4:e8:4b:53:ec:ce:05:
         0c:e5:f6:af:34:4d:1f:07:45:53:41:82:59:f0:53:d3:96:70:
         c0:2f:a4:ee:07:c4:9a:fe:e0:dd:34:d2:df:76:d7:b8:8a:45:
         18:73:86:66:a2:8e:14:e0:54:10:3d:f9:e5:9b:e7:d8:9a:2d:
         ba:e5:8f:f4:40:e7:24:dc:6f:6c:a9:8b:52:eb:70:2e:e6:92:
         9a:01:21:06:c0:5a:31:80:0c:68:79:de:0d:4b:67:1c:5c:85:
         c1:71:f3:a6:6e:0c:4f:b8:5d:4d:74:5c:49:29:a9:69:8c:d7:
         aa:f0:a5:bd:4f:2b:b8:cc:f1:38:e7:6b:8e:e2:2c:18:56:4f:
         f7:8e:b1:15:9f:b6:6d:81:48:d4:d7:60:13:77:da:0f:c3:3c:
         a9:d6:3f:5f:5e:3a:db:11:a9:90:1c:0d:ca:25:bd:9a:40:ac:
         fb:aa:24:ba:d6:e0:2b:8d:18:db:82:f6:b4:0e:c4:be:cb:24:
         b1:23:fd:15:44:d7:18:e9:ce:4a:2e:b9:c2:e1:03:cf:e6:01:
         e5:38:51:19:44:66:10:0d:cf:38:f8:ba:37:fa:b2:2a:bc:c8:
         aa:7a:84:bc:7f:d4:f9:9b:97:b0:e0:dd:7c:8e:01:68:aa:8c:
         f4:1f:1a:8e:b4:3e:2c:ac:7e:4f:ea:01:46:c8:1b:04:55:99:
         10:c2:03:90:58:89:a2:8b:07:92:99:70:d9:a2:d9:cf:03:82:
         cc:fc:76:43:97:4b:17:25:b3:2e:56:53:df:ba:30:bf:f0:bd:
         cf:98:e3:89:da:c1:9b:bc:c5:36:b0:8a:ff:2e:89:48:a4:16:
         f4:6c:96:8c:8a:96:88:1f:39:26:f5:d6:be:38:5e:e8:4f:cf:
         40:ed:21:5e:80:1a:93:01:c0:b0:4d:3f:c3:96:3a:f7:dd:7d:
         f4:41:57:0a:b8:c4:0b:3f
-----BEGIN CERTIFICATE-----
MIIGhzCCBG+gAwIBAgIBATANBgkqhkiG9w0BAQUFADCBijELMAkGA1UEBhMCQ04x
EjAQBgNVBAgMCUd1YW5nRG9uZzERMA8GA1UEBwwIU2hlblpoZW4xCzAJBgNVBAoM
AkFLMQswCQYDVQQLDAJBSzEUMBIGA1UEAwwLMTAuMC4xMzYuNzUxJDAiBgkqhkiG
9w0BCQEWFWh1YW5neWFuZ0Bha3VsYWt1LmNvbTAeFw0yMDA4MTEwNzM1MTdaFw0y
MTA4MTEwNzM1MTdaMHcxCzAJBgNVBAYTAkNOMRIwEAYDVQQIDAlHdWFuZ0Rvbmcx
CzAJBgNVBAoMAkFLMQswCQYDVQQLDAJBSzEUMBIGA1UEAwwLMTAuMC4xMzYuNzUx
JDAiBgkqhkiG9w0BCQEWFWh1YW5neWFuZ0Bha3VsYWt1LmNvbTCCAiIwDQYJKoZI
hvcNAQEBBQADggIPADCCAgoCggIBAMIWiumH2scaJJlb4UStOJqaElSU4aTw9f4I
vaFFa6wytEKySRHrcHzJ55LaoDpau7B0ro+7Z37Vh50dvFqCwO+0bNmugZ6wP4zl
Kv12rrxpXmroF8s5ebVtI/dAWNIP1k0j5tWbFLVGKDetYfi/JiDjeCEa/el7+rCm
56vdkQy9PhRkTvdy+Qm/n7MGtCnYRknROZl8a120/NwgD71SGgjXi5TIjoijtt8Y
aim+GjHgTt3VvE+oaoesQ0eFuHDgpYZNZcqFkkEHze9R69VULnmkTp+kPOaKz+VM
cSek2U+FWxxVdA3hBkXN8l95/ipz/V8dHqQF63wILF1nwoeX3PXiJwMqBLA2klF/
n6wI0plGrroN8TdBIMyJAp4n+hIx/Kpi/FMkK6jQ1m9y+jFFIbZQq96TMacSNHPI
tU9jAT191F4dCFr1D+GfiHswbqCyqOC5V9fM0tPEwynN3VOmJLuhezK3mb2ZsaOX
gocIjgm7cXFXohuj0MXWjhNntxL439JFvEf8nm65lGXw7lApId9smKvR0Q1mQWAU
J/SL0s0sDqDFZWUmWxhBakbP9dp78qaic5mDGaGvSj/UaFAPERsNmh2sVVf69tpj
YfG/0CRyZPk1NKa/sSx5P3hF6hFR07EOT4LMQJLY1qVL5eHvxYvQTDpooPY9pCGt
PTh0uI/RAgMBAAGjggEIMIIBBDAJBgNVHRMEAjAAMCwGCWCGSAGG+EIBDQQfFh1P
cGVuU1NMIEdlbmVyYXRlZCBDZXJ0aWZpY2F0ZTAdBgNVHQ4EFgQUkOJ+B2GkXhzz
vMBfd6qrx3fSAYUwgakGA1UdIwSBoTCBnqGBkKSBjTCBijELMAkGA1UEBhMCQ04x
EjAQBgNVBAgMCUd1YW5nRG9uZzERMA8GA1UEBwwIU2hlblpoZW4xCzAJBgNVBAoM
AkFLMQswCQYDVQQLDAJBSzEUMBIGA1UEAwwLMTAuMC4xMzYuNzUxJDAiBgkqhkiG
9w0BCQEWFWh1YW5neWFuZ0Bha3VsYWt1LmNvbYIJAIh5BdeONpx+MA0GCSqGSIb3
DQEBBQUAA4ICAQA2YX+h4AXSx14KBiXJJlxabhGf0n/EZH6ozKhXHPlkrKg4jplp
Vaq0u/H9VAAw+sS/SEfEQKVomSLxdKQmKCDLIq41XM5FK3OwiYJhOBG2ZT2VdKLA
Z59CwLpgyX5ELda88C8VVocqtRhvZbFl32pwx0Tv/lHlV2J3aN57K30YgDU6FltG
lxyQM5AF+8QKfvZqZ2kojUyKlsU+9vToS1PszgUM5favNE0fB0VTQYJZ8FPTlnDA
L6TuB8Sa/uDdNNLfdte4ikUYc4Zmoo4U4FQQPfnlm+fYmi265Y/0QOck3G9sqYtS
63Au5pKaASEGwFoxgAxoed4NS2ccXIXBcfOmbgxPuF1NdFxJKalpjNeq8KW9Tyu4
zPE452uO4iwYVk/3jrEVn7ZtgUjU12ATd9oPwzyp1j9fXjrbEamQHA3KJb2aQKz7
qiS61uArjRjbgva0DsS+yySxI/0VRNcY6c5KLrnC4QPP5gHlOFEZRGYQDc84+Lo3
+rIqvMiqeoS8f9T5m5ew4N18jgFoqoz0HxqOtD4srH5P6gFGyBsEVZkQwgOQWImi
iweSmXDZotnPA4LM/HZDl0sXJbMuVlPfujC/8L3PmOOJ2sGbvMU2sIr/LolIpBb0
bJaMipaIHzkm9da+OF7oT89A7SFegBqTAcCwTT/Dljr33X30QVcKuMQLPw==
-----END CERTIFICATE-----
